target datalayout = "e-m:e-p270:32:32-p271:32:32-p272:64:64-i64:64-i128:128-f80:128-n8:16:32:64-S128"
target triple = "x86_64-pc-linux-gnu"

%struct.IndexOptInfo = type { i32, i32, i32, ptr, i32, double, i32, i32, i32, ptr, ptr, ptr, ptr, ptr, ptr, ptr, ptr, ptr, i32, ptr, ptr, ptr, ptr, i8, i8, i8, i8, i8, i8, i8, i8, i8, i8, i8, i8, i8, ptr }
%struct.Path = type { i32, i32, ptr, ptr, ptr, i8, i8, i32, double, i32, double, double, ptr }
%struct.IndexPath = type { %struct.Path, ptr, ptr, ptr, ptr, i32, double, double }
%struct.GenericCosts = type { double, double, double, double, double, double, double, double }

@cpu_operator_cost = external global double, align 8

; Function Attrs: nounwind uwtable
define dso_local void @spgcostestimate(ptr noundef %0, ptr noundef %1, double noundef %2, ptr noundef %3, ptr noundef %4, ptr noundef %5, ptr noundef %6, ptr noundef %7) #0 {
  %9 = alloca ptr, align 8
  %10 = alloca ptr, align 8
  %11 = alloca double, align 8
  %12 = alloca ptr, align 8
  %13 = alloca ptr, align 8
  %14 = alloca ptr, align 8
  %15 = alloca ptr, align 8
  %16 = alloca ptr, align 8
  %17 = alloca ptr, align 8
  %18 = alloca %struct.GenericCosts, align 8
  %19 = alloca double, align 8
  store ptr %0, ptr %9, align 8
  store ptr %1, ptr %10, align 8
  store double %2, ptr %11, align 8
  store ptr %3, ptr %12, align 8
  store ptr %4, ptr %13, align 8
  store ptr %5, ptr %14, align 8
  store ptr %6, ptr %15, align 8
  store ptr %7, ptr %16, align 8
  call void @llvm.lifetime.start.p0(i64 8, ptr %17) #10
  %20 = load ptr, ptr %10, align 8
  %21 = getelementptr inbounds nuw %struct.IndexPath, ptr %20, i32 0, i32 1
  %22 = load ptr, ptr %21, align 8
  store ptr %22, ptr %17, align 8
  call void @llvm.lifetime.start.p0(i64 64, ptr %18) #10
  call void @llvm.memset.p0.i64(ptr align 8 %18, i8 0, i64 64, i1 false)
  call void @llvm.lifetime.start.p0(i64 8, ptr %19) #10
  %23 = load ptr, ptr %9, align 8
  %24 = load ptr, ptr %10, align 8
  %25 = load double, ptr %11, align 8
  call void @genericcostestimate(ptr noundef %23, ptr noundef %24, double noundef %25, ptr noundef %18)
  %26 = load ptr, ptr %17, align 8
  %27 = getelementptr inbounds nuw %struct.IndexOptInfo, ptr %26, i32 0, i32 6
  %28 = load i32, ptr %27, align 8
  %29 = icmp slt i32 %28, 0
  br i1 %29, label %30, label %50

30:                                               ; preds = %8
  %31 = load ptr, ptr %17, align 8
  %32 = getelementptr inbounds nuw %struct.IndexOptInfo, ptr %31, i32 0, i32 4
  %33 = load i32, ptr %32, align 8
  %34 = icmp ugt i32 %33, 1
  br i1 %34, label %35, label %46

35:                                               ; preds = %30
  %36 = load ptr, ptr %17, align 8
  %37 = getelementptr inbounds nuw %struct.IndexOptInfo, ptr %36, i32 0, i32 4
  %38 = load i32, ptr %37, align 8
  %39 = uitofp i32 %38 to double
  %40 = call double @log(double noundef %39) #10
  %41 = call double @log(double noundef 1.000000e+02) #10
  %42 = fdiv double %40, %41
  %43 = fptosi double %42 to i32
  %44 = load ptr, ptr %17, align 8
  %45 = getelementptr inbounds nuw %struct.IndexOptInfo, ptr %44, i32 0, i32 6
  store i32 %43, ptr %45, align 8
  br label %49

46:                                               ; preds = %30
  %47 = load ptr, ptr %17, align 8
  %48 = getelementptr inbounds nuw %struct.IndexOptInfo, ptr %47, i32 0, i32 6
  store i32 0, ptr %48, align 8
  br label %49

49:                                               ; preds = %46, %35
  br label %50

50:                                               ; preds = %49, %8
  %51 = load ptr, ptr %17, align 8
  %52 = getelementptr inbounds nuw %struct.IndexOptInfo, ptr %51, i32 0, i32 5
  %53 = load double, ptr %52, align 8
  %54 = fcmp ogt double %53, 1.000000e+00
  br i1 %54, label %55, label %73

55:                                               ; preds = %50
  %56 = load ptr, ptr %17, align 8
  %57 = getelementptr inbounds nuw %struct.IndexOptInfo, ptr %56, i32 0, i32 5
  %58 = load double, ptr %57, align 8
  %59 = call double @log(double noundef %58) #10
  %60 = call double @llvm.ceil.f64(double %59)
  %61 = load double, ptr @cpu_operator_cost, align 8
  %62 = fmul double %60, %61
  store double %62, ptr %19, align 8
  %63 = load double, ptr %19, align 8
  %64 = getelementptr inbounds nuw %struct.GenericCosts, ptr %18, i32 0, i32 0
  %65 = load double, ptr %64, align 8
  %66 = fadd double %65, %63
  store double %66, ptr %64, align 8
  %67 = getelementptr inbounds nuw %struct.GenericCosts, ptr %18, i32 0, i32 7
  %68 = load double, ptr %67, align 8
  %69 = load double, ptr %19, align 8
  %70 = getelementptr inbounds nuw %struct.GenericCosts, ptr %18, i32 0, i32 1
  %71 = load double, ptr %70, align 8
  %72 = call double @llvm.fmuladd.f64(double %68, double %69, double %71)
  store double %72, ptr %70, align 8
  br label %73

73:                                               ; preds = %55, %50
  %74 = load ptr, ptr %17, align 8
  %75 = getelementptr inbounds nuw %struct.IndexOptInfo, ptr %74, i32 0, i32 6
  %76 = load i32, ptr %75, align 8
  %77 = add i32 %76, 1
  %78 = sitofp i32 %77 to double
  %79 = fmul double %78, 5.000000e+01
  %80 = load double, ptr @cpu_operator_cost, align 8
  %81 = fmul double %79, %80
  store double %81, ptr %19, align 8
  %82 = load double, ptr %19, align 8
  %83 = getelementptr inbounds nuw %struct.GenericCosts, ptr %18, i32 0, i32 0
  %84 = load double, ptr %83, align 8
  %85 = fadd double %84, %82
  store double %85, ptr %83, align 8
  %86 = getelementptr inbounds nuw %struct.GenericCosts, ptr %18, i32 0, i32 7
  %87 = load double, ptr %86, align 8
  %88 = load double, ptr %19, align 8
  %89 = getelementptr inbounds nuw %struct.GenericCosts, ptr %18, i32 0, i32 1
  %90 = load double, ptr %89, align 8
  %91 = call double @llvm.fmuladd.f64(double %87, double %88, double %90)
  store double %91, ptr %89, align 8
  %92 = getelementptr inbounds nuw %struct.GenericCosts, ptr %18, i32 0, i32 0
  %93 = load double, ptr %92, align 8
  %94 = load ptr, ptr %12, align 8
  store double %93, ptr %94, align 8
  %95 = getelementptr inbounds nuw %struct.GenericCosts, ptr %18, i32 0, i32 1
  %96 = load double, ptr %95, align 8
  %97 = load ptr, ptr %13, align 8
  store double %96, ptr %97, align 8
  %98 = getelementptr inbounds nuw %struct.GenericCosts, ptr %18, i32 0, i32 2
  %99 = load double, ptr %98, align 8
  %100 = load ptr, ptr %14, align 8
  store double %99, ptr %100, align 8
  %101 = getelementptr inbounds nuw %struct.GenericCosts, ptr %18, i32 0, i32 3
  %102 = load double, ptr %101, align 8
  %103 = load ptr, ptr %15, align 8
  store double %102, ptr %103, align 8
  %104 = getelementptr inbounds nuw %struct.GenericCosts, ptr %18, i32 0, i32 4
  %105 = load double, ptr %104, align 8
  %106 = load ptr, ptr %16, align 8
  store double %105, ptr %106, align 8
  call void @llvm.lifetime.end.p0(i64 8, ptr %19) #10
  call void @llvm.lifetime.end.p0(i64 64, ptr %18) #10
  call void @llvm.lifetime.end.p0(i64 8, ptr %17) #10
  ret void
}